; Function Attrs: nounwind uwtable
define ptr @l_Std_Time_Internal_Bounded_LE_addProven___rarg___boxed(ptr noundef %0, ptr noundef %1, ptr readnone captures(none) %2, ptr readnone captures(none) %3) #1 {
  %5 = ptrtoint ptr %1 to i64
  %6 = and i64 %5, 1
  %.not.i.i = icmp eq i64 %6, 0
  br i1 %.not.i.i, label %26, label %7, !prof !10

7:                                                ; preds = %4
  %8 = ptrtoint ptr %0 to i64
  %9 = and i64 %8, 1
  %.not7.i.i = icmp eq i64 %9, 0
  br i1 %.not7.i.i, label %l_Std_Time_Internal_Bounded_LE_addProven___rarg.exit.thread12, label %11, !prof !10

l_Std_Time_Internal_Bounded_LE_addProven___rarg.exit.thread12: ; preds = %7
  %10 = tail call ptr @lean_int_big_add(ptr noundef %1, ptr noundef %0) #5
  br label %lean_dec.exit7

11:                                               ; preds = %7
  %12 = shl i64 %5, 31
  %13 = ashr i64 %12, 32
  %14 = shl i64 %8, 31
  %15 = ashr i64 %14, 32
  %16 = add nsw i64 %13, %15
  %17 = add nsw i64 %16, 2147483648
  %18 = icmp ult i64 %17, 4294967296
  br i1 %18, label %19, label %24, !prof !9

19:                                               ; preds = %11
  %20 = shl nsw i64 %16, 1
  %21 = and i64 %20, 8589934590
  %22 = or disjoint i64 %21, 1
  %23 = inttoptr i64 %22 to ptr
  br label %lean_dec.exit7

24:                                               ; preds = %11
  %25 = tail call ptr @lean_big_int64_to_int(i64 noundef range(i64 -4611686016279904256, 4611686018427387905) %16) #5
  br label %lean_dec.exit7

26:                                               ; preds = %4
  %27 = tail call ptr @lean_int_big_add(ptr noundef %1, ptr noundef %0) #5
  %28 = load i32, ptr %1, align 4, !tbaa !4
  %29 = icmp sgt i32 %28, 1
  br i1 %29, label %30, label %32, !prof !9

30:                                               ; preds = %26
  %31 = add nsw i32 %28, -1
  store i32 %31, ptr %1, align 4, !tbaa !4
  br label %lean_dec.exit7

32:                                               ; preds = %26
  %.not.i = icmp eq i32 %28, 0
  br i1 %.not.i, label %lean_dec.exit7, label %33

33:                                               ; preds = %32
  tail call void @lean_dec_ref_cold(ptr noundef nonnull %1) #5
  br label %lean_dec.exit7

lean_dec.exit7:                                   ; preds = %24, %19, %33, %32, %30, %l_Std_Time_Internal_Bounded_LE_addProven___rarg.exit.thread12
  %.0.i.i11 = phi ptr [ %10, %l_Std_Time_Internal_Bounded_LE_addProven___rarg.exit.thread12 ], [ %27, %30 ], [ %27, %32 ], [ %27, %33 ], [ %25, %24 ], [ %23, %19 ]
  %34 = ptrtoint ptr %0 to i64
  %35 = and i64 %34, 1
  %.not = icmp eq i64 %35, 0
  br i1 %.not, label %36, label %lean_dec.exit

36:                                               ; preds = %lean_dec.exit7
  %37 = load i32, ptr %0, align 4, !tbaa !4
  %38 = icmp sgt i32 %37, 1
  br i1 %38, label %39, label %41, !prof !9

39:                                               ; preds = %36
  %40 = add nsw i32 %37, -1
  store i32 %40, ptr %0, align 4, !tbaa !4
  br label %lean_dec.exit

41:                                               ; preds = %36
  %.not.i8 = icmp eq i32 %37, 0
  br i1 %.not.i8, label %lean_dec.exit, label %42

42:                                               ; preds = %41
  tail call void @lean_dec_ref_cold(ptr noundef nonnull %0) #5
  br label %lean_dec.exit

lean_dec.exit:                                    ; preds = %42, %41, %39, %lean_dec.exit7
  ret ptr %.0.i.i11
}